target datalayout = "e-m:e-p270:32:32-p271:32:32-p272:64:64-i64:64-i128:128-f80:128-n8:16:32:64-S128"
target triple = "x86_64-pc-linux-gnu"

%struct.ident_t = type { i32, i32, i32, i32, ptr }
%"struct.faiss::VectorDistance.2" = type { i64, float }

@1 = private unnamed_addr constant %struct.ident_t { i32 0, i32 514, i32 0, i32 22, ptr @0 }, align 8

; Function Attrs: mustprogress nounwind uwtable
define linkonce_odr noundef float @_ZNK5faiss14VectorDistanceILNS_10MetricTypeE20EEclEPKfS4_(ptr noundef nonnull align 8 dereferenceable(16) %0, ptr noundef %1, ptr noundef %2) #4 comdat align 2 {
  %4 = alloca ptr, align 8
  %5 = alloca ptr, align 8
  %6 = alloca ptr, align 8
  %7 = alloca float, align 4
  %8 = alloca i64, align 8
  %9 = alloca float, align 4
  %10 = alloca float, align 4
  store ptr %0, ptr %4, align 8
  store ptr %1, ptr %5, align 8
  store ptr %2, ptr %6, align 8
  %11 = load ptr, ptr %4, align 8
  store float 0.000000e+00, ptr %7, align 4
  store i64 0, ptr %8, align 8
  br label %12

12:                                               ; preds = %43, %3
  %13 = load i64, ptr %8, align 8
  %14 = getelementptr inbounds %"struct.faiss::VectorDistance.2", ptr %11, i32 0, i32 0
  %15 = load i64, ptr %14, align 8
  %16 = icmp ult i64 %13, %15
  br i1 %16, label %17, label %46

17:                                               ; preds = %12
  %18 = load ptr, ptr %5, align 8
  %19 = load i64, ptr %8, align 8
  %20 = getelementptr inbounds float, ptr %18, i64 %19
  %21 = load float, ptr %20, align 4
  store float %21, ptr %9, align 4
  %22 = load ptr, ptr %6, align 8
  %23 = load i64, ptr %8, align 8
  %24 = getelementptr inbounds float, ptr %22, i64 %23
  %25 = load float, ptr %24, align 4
  store float %25, ptr %10, align 4
  %26 = load float, ptr %9, align 4
  %27 = load float, ptr %10, align 4
  %28 = fsub float %26, %27
  %29 = fpext float %28 to double
  %30 = call double @llvm.fabs.f64(double %29)
  %31 = load float, ptr %9, align 4
  %32 = fpext float %31 to double
  %33 = call double @llvm.fabs.f64(double %32)
  %34 = load float, ptr %10, align 4
  %35 = fpext float %34 to double
  %36 = call double @llvm.fabs.f64(double %35)
  %37 = fadd double %33, %36
  %38 = fdiv double %30, %37
  %39 = load float, ptr %7, align 4
  %40 = fpext float %39 to double
  %41 = fadd double %40, %38
  %42 = fptrunc double %41 to float
  store float %42, ptr %7, align 4
  br label %43

43:                                               ; preds = %17
  %44 = load i64, ptr %8, align 8
  %45 = add i64 %44, 1
  store i64 %45, ptr %8, align 8
  br label %12, !llvm.loop !28

46:                                               ; preds = %12
  %47 = load float, ptr %7, align 4
  ret float %47
}

; Function Attrs: norecurse nounwind uwtable
define internal void @_ZN5faiss12_GLOBAL__N_133pairwise_extra_distances_templateINS_14VectorDistanceILNS_10MetricTypeE20EEEEEvT_lPKflS7_Pflll.omp_outlined(ptr noalias noundef %0, ptr noalias noundef %1, ptr noundef nonnull align 8 dereferenceable(8) %2, ptr noundef nonnull align 8 dereferenceable(8) %3, ptr noundef nonnull align 8 dereferenceable(8) %4, ptr noundef nonnull align 8 dereferenceable(8) %5, ptr noundef nonnull align 8 dereferenceable(8) %6, ptr noundef nonnull align 8 dereferenceable(8) %7, ptr noundef nonnull align 8 dereferenceable(8) %8, ptr noundef nonnull align 8 dereferenceable(16) %9, ptr noundef nonnull align 8 dereferenceable(8) %10) #5 {
  %12 = alloca ptr, align 8
  %13 = alloca ptr, align 8
  %14 = alloca ptr, align 8
  %15 = alloca ptr, align 8
  %16 = alloca ptr, align 8
  %17 = alloca ptr, align 8
  %18 = alloca ptr, align 8
  %19 = alloca ptr, align 8
  %20 = alloca ptr, align 8
  %21 = alloca ptr, align 8
  %22 = alloca ptr, align 8
  %23 = alloca i64, align 8
  %24 = alloca i64, align 8
  %25 = alloca i64, align 8
  %26 = alloca i64, align 8
  %27 = alloca i64, align 8
  %28 = alloca i64, align 8
  %29 = alloca i64, align 8
  %30 = alloca i32, align 4
  %31 = alloca i64, align 8
  %32 = alloca ptr, align 8
  %33 = alloca ptr, align 8
  %34 = alloca ptr, align 8
  %35 = alloca i64, align 8
  store ptr %0, ptr %12, align 8
  store ptr %1, ptr %13, align 8
  store ptr %2, ptr %14, align 8
  store ptr %3, ptr %15, align 8
  store ptr %4, ptr %16, align 8
  store ptr %5, ptr %17, align 8
  store ptr %6, ptr %18, align 8
  store ptr %7, ptr %19, align 8
  store ptr %8, ptr %20, align 8
  store ptr %9, ptr %21, align 8
  store ptr %10, ptr %22, align 8
  %36 = load ptr, ptr %14, align 8
  %37 = load ptr, ptr %15, align 8
  %38 = load ptr, ptr %16, align 8
  %39 = load ptr, ptr %17, align 8
  %40 = load ptr, ptr %18, align 8
  %41 = load ptr, ptr %19, align 8
  %42 = load ptr, ptr %20, align 8
  %43 = load ptr, ptr %21, align 8
  %44 = load ptr, ptr %22, align 8
  %45 = load i64, ptr %36, align 8
  store i64 %45, ptr %24, align 8
  %46 = load i64, ptr %24, align 8
  %47 = sub nsw i64 %46, 0
  %48 = sdiv i64 %47, 1
  %49 = sub nsw i64 %48, 1
  store i64 %49, ptr %25, align 8
  store i64 0, ptr %26, align 8
  %50 = load i64, ptr %24, align 8
  %51 = icmp slt i64 0, %50
  br i1 %51, label %52, label %111

52:                                               ; preds = %11
  store i64 0, ptr %27, align 8
  %53 = load i64, ptr %25, align 8
  store i64 %53, ptr %28, align 8
  store i64 1, ptr %29, align 8
  store i32 0, ptr %30, align 4
  %54 = load ptr, ptr %12, align 8
  %55 = load i32, ptr %54, align 4
  call void @__kmpc_for_static_init_8(ptr @1, i32 %55, i32 34, ptr %30, ptr %27, ptr %28, ptr %29, i64 1, i64 1)
  %56 = load i64, ptr %28, align 8
  %57 = load i64, ptr %25, align 8
  %58 = icmp sgt i64 %56, %57
  br i1 %58, label %59, label %61

59:                                               ; preds = %52
  %60 = load i64, ptr %25, align 8
  br label %63

61:                                               ; preds = %52
  %62 = load i64, ptr %28, align 8
  br label %63

63:                                               ; preds = %61, %59
  %64 = phi i64 [ %60, %59 ], [ %62, %61 ]
  store i64 %64, ptr %28, align 8
  %65 = load i64, ptr %27, align 8
  store i64 %65, ptr %23, align 8
  br label %66

66:                                               ; preds = %104, %63
  %67 = load i64, ptr %23, align 8
  %68 = load i64, ptr %28, align 8
  %69 = icmp sle i64 %67, %68
  br i1 %69, label %70, label %107

70:                                               ; preds = %66
  %71 = load i64, ptr %23, align 8
  %72 = mul nsw i64 %71, 1
  %73 = add nsw i64 0, %72
  store i64 %73, ptr %31, align 8
  %74 = load ptr, ptr %37, align 8
  %75 = load i64, ptr %31, align 8
  %76 = load i64, ptr %38, align 8
  %77 = mul nsw i64 %75, %76
  %78 = getelementptr inbounds float, ptr %74, i64 %77
  store ptr %78, ptr %32, align 8
  %79 = load ptr, ptr %39, align 8
  store ptr %79, ptr %33, align 8
  %80 = load ptr, ptr %40, align 8
  %81 = load i64, ptr %41, align 8
  %82 = load i64, ptr %31, align 8
  %83 = mul nsw i64 %81, %82
  %84 = getelementptr inbounds float, ptr %80, i64 %83
  store ptr %84, ptr %34, align 8
  store i64 0, ptr %35, align 8
  br label %85

85:                                               ; preds = %99, %70
  %86 = load i64, ptr %35, align 8
  %87 = load i64, ptr %42, align 8
  %88 = icmp slt i64 %86, %87
  br i1 %88, label %89, label %102

89:                                               ; preds = %85
  %90 = load ptr, ptr %32, align 8
  %91 = load ptr, ptr %33, align 8
  %92 = call noundef float @_ZNK5faiss14VectorDistanceILNS_10MetricTypeE20EEclEPKfS4_(ptr noundef nonnull align 8 dereferenceable(16) %43, ptr noundef %90, ptr noundef %91)
  %93 = load ptr, ptr %34, align 8
  %94 = load i64, ptr %35, align 8
  %95 = getelementptr inbounds float, ptr %93, i64 %94
  store float %92, ptr %95, align 4
  %96 = load i64, ptr %44, align 8
  %97 = load ptr, ptr %33, align 8
  %98 = getelementptr inbounds float, ptr %97, i64 %96
  store ptr %98, ptr %33, align 8
  br label %99

99:                                               ; preds = %89
  %100 = load i64, ptr %35, align 8
  %101 = add nsw i64 %100, 1
  store i64 %101, ptr %35, align 8
  br label %85, !llvm.loop !64

102:                                              ; preds = %85
  br label %103

103:                                              ; preds = %102
  br label %104

104:                                              ; preds = %103
  %105 = load i64, ptr %23, align 8
  %106 = add nsw i64 %105, 1
  store i64 %106, ptr %23, align 8
  br label %66

107:                                              ; preds = %66
  br label %108

108:                                              ; preds = %107
  %109 = load ptr, ptr %12, align 8
  %110 = load i32, ptr %109, align 4
  call void @__kmpc_for_static_fini(ptr @1, i32 %110)
  br label %111

111:                                              ; preds = %108, %11
  ret void
}