; Function Attrs: norecurse nounwind uwtable
define internal void @_ZN5faiss12_GLOBAL__N_133pairwise_extra_distances_templateINS_14VectorDistanceILNS_10MetricTypeE20EEEEEvT_lPKflS7_Pflll.omp_outlined(ptr noalias nocapture noundef readonly %0, ptr noalias nocapture readnone %1, ptr nocapture noundef nonnull readonly align 8 dereferenceable(8) %2, ptr nocapture noundef nonnull readonly align 8 dereferenceable(8) %3, ptr nocapture noundef nonnull readonly align 8 dereferenceable(8) %4, ptr nocapture noundef nonnull readonly align 8 dereferenceable(8) %5, ptr nocapture noundef nonnull readonly align 8 dereferenceable(8) %6, ptr nocapture noundef nonnull readonly align 8 dereferenceable(8) %7, ptr nocapture noundef nonnull readonly align 8 dereferenceable(8) %8, ptr nocapture noundef nonnull readonly align 8 dereferenceable(16) %9, ptr nocapture noundef nonnull readonly align 8 dereferenceable(8) %10) #4 {
  %12 = alloca i64, align 8
  %13 = alloca i64, align 8
  %14 = alloca i64, align 8
  %15 = alloca i32, align 4
  %16 = load i64, ptr %2, align 8
  %17 = icmp sgt i64 %16, 0
  br i1 %17, label %18, label %66

18:                                               ; preds = %11
  %19 = add nsw i64 %16, -1
  store i64 0, ptr %12, align 8
  store i64 %19, ptr %13, align 8
  store i64 1, ptr %14, align 8
  store i32 0, ptr %15, align 4
  %20 = load i32, ptr %0, align 4
  call void @__kmpc_for_static_init_8(ptr nonnull @1, i32 %20, i32 34, ptr nonnull %15, ptr nonnull %12, ptr nonnull %13, ptr nonnull %14, i64 1, i64 1)
  %21 = load i64, ptr %13, align 8
  %22 = call i64 @llvm.smin.i64(i64 %21, i64 %19)
  store i64 %22, ptr %13, align 8
  %23 = load i64, ptr %12, align 8
  %.not31 = icmp sle i64 %23, %22
  %24 = load i64, ptr %8, align 8
  %25 = icmp sgt i64 %24, 0
  %or.cond = select i1 %.not31, i1 %25, i1 false
  br i1 %or.cond, label %.lr.ph34.split, label %._crit_edge35

.lr.ph34.split:                                   ; preds = %18, %._crit_edge
  %26 = phi i64 [ %63, %._crit_edge ], [ %22, %18 ]
  %27 = phi i64 [ %64, %._crit_edge ], [ %24, %18 ]
  %.02732 = phi i64 [ %65, %._crit_edge ], [ %23, %18 ]
  %28 = load ptr, ptr %3, align 8
  %29 = load i64, ptr %4, align 8
  %30 = mul nsw i64 %29, %.02732
  %31 = getelementptr inbounds float, ptr %28, i64 %30
  %32 = load ptr, ptr %6, align 8
  %33 = load i64, ptr %7, align 8
  %34 = mul nsw i64 %33, %.02732
  %35 = getelementptr inbounds float, ptr %32, i64 %34
  %36 = icmp sgt i64 %27, 0
  br i1 %36, label %.lr.ph.preheader, label %._crit_edge

.lr.ph.preheader:                                 ; preds = %.lr.ph34.split
  %37 = load ptr, ptr %5, align 8
  br label %.lr.ph

.lr.ph:                                           ; preds = %.lr.ph.preheader, %_ZNK5faiss14VectorDistanceILNS_10MetricTypeE20EEclEPKfS4_.exit
  %.030 = phi i64 [ %60, %_ZNK5faiss14VectorDistanceILNS_10MetricTypeE20EEclEPKfS4_.exit ], [ 0, %.lr.ph.preheader ]
  %.02829 = phi ptr [ %59, %_ZNK5faiss14VectorDistanceILNS_10MetricTypeE20EEclEPKfS4_.exit ], [ %37, %.lr.ph.preheader ]
  %38 = load i64, ptr %9, align 8
  %.not.i = icmp eq i64 %38, 0
  br i1 %.not.i, label %_ZNK5faiss14VectorDistanceILNS_10MetricTypeE20EEclEPKfS4_.exit, label %.lr.ph.i

.lr.ph.i:                                         ; preds = %.lr.ph, %.lr.ph.i
  %.014.i = phi float [ %55, %.lr.ph.i ], [ 0.000000e+00, %.lr.ph ]
  %.01213.i = phi i64 [ %56, %.lr.ph.i ], [ 0, %.lr.ph ]
  %39 = getelementptr inbounds float, ptr %31, i64 %.01213.i
  %40 = load float, ptr %39, align 4
  %41 = getelementptr inbounds float, ptr %.02829, i64 %.01213.i
  %42 = load float, ptr %41, align 4
  %43 = fsub float %40, %42
  %44 = call float @llvm.fabs.f32(float %43)
  %45 = fpext float %44 to double
  %46 = insertelement <2 x float> poison, float %40, i64 0
  %47 = insertelement <2 x float> %46, float %42, i64 1
  %48 = call <2 x float> @llvm.fabs.v2f32(<2 x float> %47)
  %49 = fpext <2 x float> %48 to <2 x double>
  %shift = shufflevector <2 x double> %49, <2 x double> poison, <2 x i32> <i32 1, i32 poison>
  %50 = fadd <2 x double> %shift, %49
  %51 = extractelement <2 x double> %50, i64 0
  %52 = fdiv double %45, %51
  %53 = fpext float %.014.i to double
  %54 = fadd double %52, %53
  %55 = fptrunc double %54 to float
  %56 = add nuw i64 %.01213.i, 1
  %exitcond.not.i = icmp eq i64 %56, %38
  br i1 %exitcond.not.i, label %_ZNK5faiss14VectorDistanceILNS_10MetricTypeE20EEclEPKfS4_.exit, label %.lr.ph.i, !llvm.loop !24

_ZNK5faiss14VectorDistanceILNS_10MetricTypeE20EEclEPKfS4_.exit: ; preds = %.lr.ph.i, %.lr.ph
  %.0.lcssa.i = phi float [ 0.000000e+00, %.lr.ph ], [ %55, %.lr.ph.i ]
  %57 = getelementptr inbounds float, ptr %35, i64 %.030
  store float %.0.lcssa.i, ptr %57, align 4
  %58 = load i64, ptr %10, align 8
  %59 = getelementptr inbounds float, ptr %.02829, i64 %58
  %60 = add nuw nsw i64 %.030, 1
  %61 = load i64, ptr %8, align 8
  %62 = icmp slt i64 %60, %61
  br i1 %62, label %.lr.ph, label %._crit_edge.loopexit, !llvm.loop !67

._crit_edge.loopexit:                             ; preds = %_ZNK5faiss14VectorDistanceILNS_10MetricTypeE20EEclEPKfS4_.exit
  %.pre = load i64, ptr %13, align 8
  br label %._crit_edge

._crit_edge:                                      ; preds = %._crit_edge.loopexit, %.lr.ph34.split
  %63 = phi i64 [ %.pre, %._crit_edge.loopexit ], [ %26, %.lr.ph34.split ]
  %64 = phi i64 [ %61, %._crit_edge.loopexit ], [ %27, %.lr.ph34.split ]
  %65 = add nsw i64 %.02732, 1
  %.not.not = icmp slt i64 %.02732, %63
  br i1 %.not.not, label %.lr.ph34.split, label %._crit_edge35, !llvm.loop !68

._crit_edge35:                                    ; preds = %._crit_edge, %18
  call void @__kmpc_for_static_fini(ptr nonnull @1, i32 %20)
  br label %66

66:                                               ; preds = %._crit_edge35, %11
  ret void
}